target datalayout = "e-m:e-p270:32:32-p271:32:32-p272:64:64-i64:64-i128:128-f80:128-n8:16:32:64-S128"
target triple = "x86_64-pc-linux-gnu"

%struct._lv_lru_rb_t = type { %struct._lv_cache_t, %struct._lv_rb_t, %struct.lv_ll_t, ptr }
%struct._lv_cache_t = type { ptr, i32, i32, i32, %struct._lv_cache_ops_t, i32, ptr }
%struct._lv_cache_ops_t = type { ptr, ptr, ptr }
%struct._lv_rb_t = type { ptr, ptr, i64 }
%struct.lv_ll_t = type { i32, ptr, ptr }

; Function Attrs: nounwind uwtable
define internal zeroext i1 @init_size_cb(ptr noundef %0) #0 {
  %2 = alloca i1, align 1
  %3 = alloca ptr, align 8
  %4 = alloca ptr, align 8
  %5 = alloca i32, align 4
  store ptr %0, ptr %3, align 8, !tbaa !3
  call void @llvm.lifetime.start.p0(i64 8, ptr %4) #4
  %6 = load ptr, ptr %3, align 8, !tbaa !3
  store ptr %6, ptr %4, align 8, !tbaa !3
  br label %7

7:                                                ; preds = %1
  %8 = load ptr, ptr %4, align 8, !tbaa !3
  %9 = getelementptr inbounds nuw %struct._lv_lru_rb_t, ptr %8, i32 0, i32 0
  %10 = getelementptr inbounds nuw %struct._lv_cache_t, ptr %9, i32 0, i32 4
  %11 = getelementptr inbounds nuw %struct._lv_cache_ops_t, ptr %10, i32 0, i32 0
  %12 = load ptr, ptr %11, align 8, !tbaa !7
  %13 = icmp ne ptr %12, null
  br i1 %13, label %20, label %14

14:                                               ; preds = %7
  br label %15

15:                                               ; preds = %14
  br label %16

16:                                               ; preds = %15
  br label %17

17:                                               ; preds = %16
  br label %18

18:                                               ; preds = %19, %17
  br label %19

19:                                               ; preds = %18
  br label %18

20:                                               ; preds = %7
  br label %21

21:                                               ; preds = %20
  br label %22

22:                                               ; preds = %21
  br label %23

23:                                               ; preds = %22
  %24 = load ptr, ptr %4, align 8, !tbaa !3
  %25 = getelementptr inbounds nuw %struct._lv_lru_rb_t, ptr %24, i32 0, i32 0
  %26 = getelementptr inbounds nuw %struct._lv_cache_t, ptr %25, i32 0, i32 4
  %27 = getelementptr inbounds nuw %struct._lv_cache_ops_t, ptr %26, i32 0, i32 2
  %28 = load ptr, ptr %27, align 8, !tbaa !15
  %29 = icmp ne ptr %28, null
  br i1 %29, label %36, label %30

30:                                               ; preds = %23
  br label %31

31:                                               ; preds = %30
  br label %32

32:                                               ; preds = %31
  br label %33

33:                                               ; preds = %32
  br label %34

34:                                               ; preds = %35, %33
  br label %35

35:                                               ; preds = %34
  br label %34

36:                                               ; preds = %23
  br label %37

37:                                               ; preds = %36
  br label %38

38:                                               ; preds = %37
  br label %39

39:                                               ; preds = %38
  %40 = load ptr, ptr %4, align 8, !tbaa !3
  %41 = getelementptr inbounds nuw %struct._lv_lru_rb_t, ptr %40, i32 0, i32 0
  %42 = getelementptr inbounds nuw %struct._lv_cache_t, ptr %41, i32 0, i32 1
  %43 = load i32, ptr %42, align 8, !tbaa !16
  %44 = icmp ugt i32 %43, 0
  br i1 %44, label %51, label %45

45:                                               ; preds = %39
  br label %46

46:                                               ; preds = %45
  br label %47

47:                                               ; preds = %46
  br label %48

48:                                               ; preds = %47
  br label %49

49:                                               ; preds = %50, %48
  br label %50

50:                                               ; preds = %49
  br label %49

51:                                               ; preds = %39
  br label %52

52:                                               ; preds = %51
  br label %53

53:                                               ; preds = %52
  %54 = load ptr, ptr %4, align 8, !tbaa !3
  %55 = getelementptr inbounds nuw %struct._lv_lru_rb_t, ptr %54, i32 0, i32 0
  %56 = getelementptr inbounds nuw %struct._lv_cache_t, ptr %55, i32 0, i32 1
  %57 = load i32, ptr %56, align 8, !tbaa !16
  %58 = icmp ule i32 %57, 0
  br i1 %58, label %73, label %59

59:                                               ; preds = %53
  %60 = load ptr, ptr %4, align 8, !tbaa !3
  %61 = getelementptr inbounds nuw %struct._lv_lru_rb_t, ptr %60, i32 0, i32 0
  %62 = getelementptr inbounds nuw %struct._lv_cache_t, ptr %61, i32 0, i32 4
  %63 = getelementptr inbounds nuw %struct._lv_cache_ops_t, ptr %62, i32 0, i32 0
  %64 = load ptr, ptr %63, align 8, !tbaa !7
  %65 = icmp eq ptr %64, null
  br i1 %65, label %73, label %66

66:                                               ; preds = %59
  %67 = load ptr, ptr %4, align 8, !tbaa !3
  %68 = getelementptr inbounds nuw %struct._lv_lru_rb_t, ptr %67, i32 0, i32 0
  %69 = getelementptr inbounds nuw %struct._lv_cache_t, ptr %68, i32 0, i32 4
  %70 = getelementptr inbounds nuw %struct._lv_cache_ops_t, ptr %69, i32 0, i32 2
  %71 = load ptr, ptr %70, align 8, !tbaa !15
  %72 = icmp eq ptr %71, null
  br i1 %72, label %73, label %74

73:                                               ; preds = %66, %59, %53
  store i1 false, ptr %2, align 1
  store i32 1, ptr %5, align 4
  br label %96

74:                                               ; preds = %66
  %75 = load ptr, ptr %4, align 8, !tbaa !3
  %76 = getelementptr inbounds nuw %struct._lv_lru_rb_t, ptr %75, i32 0, i32 1
  %77 = load ptr, ptr %4, align 8, !tbaa !3
  %78 = getelementptr inbounds nuw %struct._lv_lru_rb_t, ptr %77, i32 0, i32 0
  %79 = getelementptr inbounds nuw %struct._lv_cache_t, ptr %78, i32 0, i32 4
  %80 = getelementptr inbounds nuw %struct._lv_cache_ops_t, ptr %79, i32 0, i32 0
  %81 = load ptr, ptr %80, align 8, !tbaa !7
  %82 = load ptr, ptr %4, align 8, !tbaa !3
  %83 = getelementptr inbounds nuw %struct._lv_lru_rb_t, ptr %82, i32 0, i32 0
  %84 = getelementptr inbounds nuw %struct._lv_cache_t, ptr %83, i32 0, i32 1
  %85 = load i32, ptr %84, align 8, !tbaa !16
  %86 = call i32 @lv_cache_entry_get_size(i32 noundef %85)
  %87 = zext i32 %86 to i64
  %88 = add i64 %87, 8
  %89 = call zeroext i1 @lv_rb_init(ptr noundef %76, ptr noundef %81, i64 noundef %88)
  br i1 %89, label %91, label %90

90:                                               ; preds = %74
  store i1 false, ptr %2, align 1
  store i32 1, ptr %5, align 4
  br label %96

91:                                               ; preds = %74
  %92 = load ptr, ptr %4, align 8, !tbaa !3
  %93 = getelementptr inbounds nuw %struct._lv_lru_rb_t, ptr %92, i32 0, i32 2
  call void @lv_ll_init(ptr noundef %93, i32 noundef 8)
  %94 = load ptr, ptr %4, align 8, !tbaa !3
  %95 = getelementptr inbounds nuw %struct._lv_lru_rb_t, ptr %94, i32 0, i32 3
  store ptr @size_get_data_size_cb, ptr %95, align 8, !tbaa !17
  store i1 true, ptr %2, align 1
  store i32 1, ptr %5, align 4
  br label %96

96:                                               ; preds = %91, %90, %73
  call void @llvm.lifetime.end.p0(i64 8, ptr %4) #4
  %97 = load i1, ptr %2, align 1
  ret i1 %97
}