; Function Attrs: nounwind uwtable
define internal noundef zeroext i1 @init_size_cb(ptr noundef %0) #0 {
  %2 = getelementptr inbounds nuw i8, ptr %0, i64 24
  %3 = load ptr, ptr %2, align 8, !tbaa !3
  %.not = icmp eq ptr %3, null
  br i1 %.not, label %.preheader, label %4

.preheader:                                       ; preds = %1, %.preheader
  br label %.preheader

4:                                                ; preds = %1
  %5 = getelementptr inbounds nuw i8, ptr %0, i64 40
  %6 = load ptr, ptr %5, align 8, !tbaa !14
  %.not15 = icmp eq ptr %6, null
  br i1 %.not15, label %.preheader17, label %7

.preheader17:                                     ; preds = %4, %.preheader17
  br label %.preheader17

7:                                                ; preds = %4
  %8 = getelementptr inbounds nuw i8, ptr %0, i64 8
  %9 = load i32, ptr %8, align 8, !tbaa !15
  %.not16 = icmp eq i32 %9, 0
  br i1 %.not16, label %.preheader18, label %10

.preheader18:                                     ; preds = %7, %.preheader18
  br label %.preheader18

10:                                               ; preds = %7
  %11 = getelementptr inbounds nuw i8, ptr %0, i64 64
  %12 = tail call i32 @lv_cache_entry_get_size(i32 noundef %9) #5
  %13 = zext i32 %12 to i64
  %14 = add nuw nsw i64 %13, 8
  %15 = tail call zeroext i1 @lv_rb_init(ptr noundef nonnull %11, ptr noundef nonnull %3, i64 noundef %14) #5
  br i1 %15, label %16, label %19

16:                                               ; preds = %10
  %17 = getelementptr inbounds nuw i8, ptr %0, i64 88
  tail call void @lv_ll_init(ptr noundef nonnull %17, i32 noundef 8) #5
  %18 = getelementptr inbounds nuw i8, ptr %0, i64 112
  store ptr @size_get_data_size_cb, ptr %18, align 8, !tbaa !16
  br label %19

19:                                               ; preds = %10, %16
  ret i1 %15
}